ccopy_reg
_reconstructor
p0
(csklearn.preprocessing.label
LabelEncoder
p1
c__builtin__
object
p2
Ntp3
Rp4
(dp5
S'classes_'
p6
cnumpy.core.multiarray
_reconstruct
p7
(cnumpy
ndarray
p8
(I0
tp9
S'b'
p10
tp11
Rp12
(I1
(I11
tp13
cnumpy
dtype
p14
(S'O8'
p15
I0
I1
tp16
Rp17
(I3
S'|'
p18
NNNI-1
I-1
I63
tp19
bI00
(lp20
S'OTH'
p21
aS'REJ'
p22
aS'RSTO'
p23
aS'RSTOS0'
p24
aS'RSTR'
p25
aS'S0'
p26
aS'S1'
p27
aS'S2'
p28
aS'S3'
p29
aS'SF'
p30
aS'SH'
p31
atp32
bsb.