ccopy_reg
_reconstructor
p0
(csklearn.preprocessing.label
LabelEncoder
p1
c__builtin__
object
p2
Ntp3
Rp4
(dp5
S'classes_'
p6
cnumpy.core.multiarray
_reconstruct
p7
(cnumpy
ndarray
p8
(I0
tp9
S'b'
p10
tp11
Rp12
(I1
(I67
tp13
cnumpy
dtype
p14
(S'O8'
p15
I0
I1
tp16
Rp17
(I3
S'|'
p18
NNNI-1
I-1
I63
tp19
bI00
(lp20
S'IRC'
p21
aS'X11'
p22
aS'Z39_50'
p23
aS'auth'
p24
aS'bgp'
p25
aS'courier'
p26
aS'csnet_ns'
p27
aS'ctf'
p28
aS'daytime'
p29
aS'discard'
p30
aS'domain'
p31
aS'domain_u'
p32
aS'echo'
p33
aS'eco_i'
p34
aS'ecr_i'
p35
aS'efs'
p36
aS'exec'
p37
aS'finger'
p38
aS'ftp'
p39
aS'ftp_data'
p40
aS'gopher'
p41
aS'hostnames'
p42
aS'http'
p43
aS'http_443'
p44
aS'icmp'
p45
aS'imap4'
p46
aS'iso_tsap'
p47
aS'klogin'
p48
aS'kshell'
p49
aS'ldap'
p50
aS'link'
p51
aS'login'
p52
aS'mtp'
p53
aS'name'
p54
aS'netbios_dgm'
p55
aS'netbios_ns'
p56
aS'netbios_ssn'
p57
aS'netstat'
p58
aS'nnsp'
p59
aS'nntp'
p60
aS'ntp_u'
p61
aS'other'
p62
aS'pm_dump'
p63
aS'pop_2'
p64
aS'pop_3'
p65
aS'printer'
p66
aS'private'
p67
aS'red_i'
p68
aS'remote_job'
p69
aS'rje'
p70
aS'shell'
p71
aS'smtp'
p72
aS'sql_net'
p73
aS'ssh'
p74
aS'sunrpc'
p75
aS'supdup'
p76
aS'systat'
p77
aS'telnet'
p78
aS'tftp_u'
p79
aS'tim_i'
p80
aS'time'
p81
aS'urh_i'
p82
aS'urp_i'
p83
aS'uucp'
p84
aS'uucp_path'
p85
aS'vmnet'
p86
aS'whois'
p87
atp88
bsb.